; ModuleID = '7/215.c'
source_filename = "7/215.c"
target datalayout = "e-m:e-p270:32:32-p271:32:32-p272:64:64-i64:64-f80:128-n8:16:32:64-S128"
target triple = "x86_64-pc-linux-gnu"

@.str = private unnamed_addr constant [3 x i8] c"%s\00", align 1

; Function Attrs: noinline nounwind uwtable
define dso_local i32 @main() #0 {
  %1 = alloca i32, align 4
  %2 = alloca [257 x i8], align 16
  %3 = alloca [257 x i8], align 16
  %4 = alloca [257 x i8], align 16
  %5 = alloca [257 x i8], align 16
  %6 = alloca [257 x i8], align 16
  %7 = alloca [257 x i8], align 16
  %8 = alloca i32, align 4
  %9 = alloca i32, align 4
  %10 = alloca i32, align 4
  %11 = alloca i32, align 4
  %12 = alloca i32, align 4
  %13 = alloca i32, align 4
  %14 = alloca i32, align 4
  store i32 0, i32* %1, align 4
  %15 = bitcast [257 x i8]* %2 to i8*
  call void @llvm.memset.p0i8.i64(i8* align 16 %15, i8 0, i64 257, i1 false)
  %16 = bitcast [257 x i8]* %3 to i8*
  call void @llvm.memset.p0i8.i64(i8* align 16 %16, i8 0, i64 257, i1 false)
  %17 = bitcast [257 x i8]* %4 to i8*
  call void @llvm.memset.p0i8.i64(i8* align 16 %17, i8 0, i64 257, i1 false)
  %18 = bitcast [257 x i8]* %5 to i8*
  call void @llvm.memset.p0i8.i64(i8* align 16 %18, i8 0, i64 257, i1 false)
  %19 = bitcast [257 x i8]* %6 to i8*
  call void @llvm.memset.p0i8.i64(i8* align 16 %19, i8 0, i64 257, i1 false)
  %20 = bitcast [257 x i8]* %7 to i8*
  call void @llvm.memset.p0i8.i64(i8* align 16 %20, i8 0, i64 257, i1 false)
  store i32 0, i32* %11, align 4
  store i32 0, i32* %12, align 4
  store i32 0, i32* %13, align 4
  store i32 0, i32* %14, align 4
  %21 = getelementptr inbounds [257 x i8], [257 x i8]* %2, i64 0, i64 0
  %22 = call i32 (i8*, ...) bitcast (i32 (...)* @gets to i32 (i8*, ...)*)(i8* %21)
  %23 = getelementptr inbounds [257 x i8], [257 x i8]* %3, i64 0, i64 0
  %24 = call i32 (i8*, ...) bitcast (i32 (...)* @gets to i32 (i8*, ...)*)(i8* %23)
  %25 = getelementptr inbounds [257 x i8], [257 x i8]* %4, i64 0, i64 0
  %26 = call i32 (i8*, ...) bitcast (i32 (...)* @gets to i32 (i8*, ...)*)(i8* %25)
  %27 = getelementptr inbounds [257 x i8], [257 x i8]* %2, i64 0, i64 0
  %28 = call i64 @strlen(i8* %27) #4
  %29 = trunc i64 %28 to i32
  store i32 %29, i32* %12, align 4
  %30 = getelementptr inbounds [257 x i8], [257 x i8]* %3, i64 0, i64 0
  %31 = call i64 @strlen(i8* %30) #4
  %32 = trunc i64 %31 to i32
  store i32 %32, i32* %13, align 4
  store i32 0, i32* %8, align 4
  br label %33

33:                                               ; preds = %72, %0
  %34 = load i32, i32* %8, align 4
  %35 = load i32, i32* %12, align 4
  %36 = load i32, i32* %13, align 4
  %37 = sub nsw i32 %35, %36
  %38 = icmp sle i32 %34, %37
  br i1 %38, label %39, label %75

39:                                               ; preds = %33
  %40 = load i32, i32* %8, align 4
  store i32 %40, i32* %9, align 4
  store i32 0, i32* %10, align 4
  br label %41

41:                                               ; preds = %59, %39
  %42 = load i32, i32* %9, align 4
  %43 = load i32, i32* %8, align 4
  %44 = load i32, i32* %13, align 4
  %45 = add nsw i32 %43, %44
  %46 = icmp slt i32 %42, %45
  %47 = zext i1 %46 to i32
  %48 = load i32, i32* %10, align 4
  %49 = load i32, i32* %13, align 4
  %50 = icmp slt i32 %48, %49
  br i1 %50, label %51, label %64

51:                                               ; preds = %41
  %52 = load i32, i32* %9, align 4
  %53 = sext i32 %52 to i64
  %54 = getelementptr inbounds [257 x i8], [257 x i8]* %2, i64 0, i64 %53
  %55 = load i8, i8* %54, align 1
  %56 = load i32, i32* %10, align 4
  %57 = sext i32 %56 to i64
  %58 = getelementptr inbounds [257 x i8], [257 x i8]* %5, i64 0, i64 %57
  store i8 %55, i8* %58, align 1
  br label %59

59:                                               ; preds = %51
  %60 = load i32, i32* %9, align 4
  %61 = add nsw i32 %60, 1
  store i32 %61, i32* %9, align 4
  %62 = load i32, i32* %10, align 4
  %63 = add nsw i32 %62, 1
  store i32 %63, i32* %10, align 4
  br label %41

64:                                               ; preds = %41
  %65 = getelementptr inbounds [257 x i8], [257 x i8]* %5, i64 0, i64 0
  %66 = getelementptr inbounds [257 x i8], [257 x i8]* %3, i64 0, i64 0
  %67 = call i32 @strcmp(i8* %65, i8* %66) #4
  %68 = icmp eq i32 %67, 0
  br i1 %68, label %69, label %71

69:                                               ; preds = %64
  store i32 1, i32* %11, align 4
  %70 = load i32, i32* %8, align 4
  store i32 %70, i32* %14, align 4
  br label %75

71:                                               ; preds = %64
  br label %72

72:                                               ; preds = %71
  %73 = load i32, i32* %8, align 4
  %74 = add nsw i32 %73, 1
  store i32 %74, i32* %8, align 4
  br label %33

75:                                               ; preds = %69, %33
  store i32 0, i32* %8, align 4
  br label %76

76:                                               ; preds = %88, %75
  %77 = load i32, i32* %8, align 4
  %78 = load i32, i32* %14, align 4
  %79 = icmp slt i32 %77, %78
  br i1 %79, label %80, label %91

80:                                               ; preds = %76
  %81 = load i32, i32* %8, align 4
  %82 = sext i32 %81 to i64
  %83 = getelementptr inbounds [257 x i8], [257 x i8]* %2, i64 0, i64 %82
  %84 = load i8, i8* %83, align 1
  %85 = load i32, i32* %8, align 4
  %86 = sext i32 %85 to i64
  %87 = getelementptr inbounds [257 x i8], [257 x i8]* %6, i64 0, i64 %86
  store i8 %84, i8* %87, align 1
  br label %88

88:                                               ; preds = %80
  %89 = load i32, i32* %8, align 4
  %90 = add nsw i32 %89, 1
  store i32 %90, i32* %8, align 4
  br label %76

91:                                               ; preds = %76
  %92 = load i32, i32* %11, align 4
  %93 = icmp eq i32 %92, 1
  br i1 %93, label %94, label %129

94:                                               ; preds = %91
  %95 = getelementptr inbounds [257 x i8], [257 x i8]* %6, i64 0, i64 0
  %96 = call i32 (i8*, ...) @printf(i8* getelementptr inbounds ([3 x i8], [3 x i8]* @.str, i64 0, i64 0), i8* %95)
  %97 = getelementptr inbounds [257 x i8], [257 x i8]* %4, i64 0, i64 0
  %98 = call i32 (i8*, ...) @printf(i8* getelementptr inbounds ([3 x i8], [3 x i8]* @.str, i64 0, i64 0), i8* %97)
  %99 = load i32, i32* %13, align 4
  %100 = load i32, i32* %14, align 4
  %101 = add nsw i32 %99, %100
  %102 = load i32, i32* %12, align 4
  %103 = icmp slt i32 %101, %102
  br i1 %103, label %104, label %128

104:                                              ; preds = %94
  store i32 0, i32* %10, align 4
  %105 = load i32, i32* %14, align 4
  %106 = load i32, i32* %13, align 4
  %107 = add nsw i32 %105, %106
  store i32 %107, i32* %8, align 4
  br label %108

108:                                              ; preds = %122, %104
  %109 = load i32, i32* %8, align 4
  %110 = load i32, i32* %12, align 4
  %111 = icmp slt i32 %109, %110
  br i1 %111, label %112, label %125

112:                                              ; preds = %108
  %113 = load i32, i32* %8, align 4
  %114 = sext i32 %113 to i64
  %115 = getelementptr inbounds [257 x i8], [257 x i8]* %2, i64 0, i64 %114
  %116 = load i8, i8* %115, align 1
  %117 = load i32, i32* %10, align 4
  %118 = sext i32 %117 to i64
  %119 = getelementptr inbounds [257 x i8], [257 x i8]* %7, i64 0, i64 %118
  store i8 %116, i8* %119, align 1
  %120 = load i32, i32* %10, align 4
  %121 = add nsw i32 %120, 1
  store i32 %121, i32* %10, align 4
  br label %122

122:                                              ; preds = %112
  %123 = load i32, i32* %8, align 4
  %124 = add nsw i32 %123, 1
  store i32 %124, i32* %8, align 4
  br label %108

125:                                              ; preds = %108
  %126 = getelementptr inbounds [257 x i8], [257 x i8]* %7, i64 0, i64 0
  %127 = call i32 (i8*, ...) @printf(i8* getelementptr inbounds ([3 x i8], [3 x i8]* @.str, i64 0, i64 0), i8* %126)
  br label %128

128:                                              ; preds = %125, %94
  br label %129

129:                                              ; preds = %128, %91
  %130 = load i32, i32* %11, align 4
  %131 = icmp eq i32 %130, 0
  br i1 %131, label %132, label %135

132:                                              ; preds = %129
  %133 = getelementptr inbounds [257 x i8], [257 x i8]* %2, i64 0, i64 0
  %134 = call i32 (i8*, ...) @printf(i8* getelementptr inbounds ([3 x i8], [3 x i8]* @.str, i64 0, i64 0), i8* %133)
  br label %135

135:                                              ; preds = %132, %129
  ret i32 0
}

; Function Attrs: argmemonly nounwind willreturn
declare void @llvm.memset.p0i8.i64(i8* nocapture writeonly, i8, i64, i1 immarg) #1

declare dso_local i32 @gets(...) #2

; Function Attrs: nounwind readonly
declare dso_local i64 @strlen(i8*) #3

; Function Attrs: nounwind readonly
declare dso_local i32 @strcmp(i8*, i8*) #3

declare dso_local i32 @printf(i8*, ...) #2


!llvm.module.flags = !{!0}
!llvm.ident = !{!1}

!0 = !{i32 1, !"wchar_size", i32 4}
!1 = !{!"clang version 10.0.0-4ubuntu1 "}
